(dp1
S'output'
p2
S"<class 'pysqlite2.dbapi2.OperationalError'> Cannot add a NOT NULL column with default value NULL"
p3
sS'layer'
p4
S'/home/wantsomechocolate/Code/py2manager/applications/py2manager/models/db_tasks.py'
p5
sS'code'
p6
S"db.define_table('company',\n\tField('company_name', notnull=True, unique=True),\n\tField('email'),\n\tField('phone', notnull=True),\n\tField('url'),\n\tformat = '%(company_name)s'\n\t)\n\ndb.company.email.requires=IS_EMAIL()\ndb.company.url.requires=IS_EMPTY_OR(IS_URL())\n\ndb.define_table('project',\n\tField('name', notnull=True),\n\tField('employee_name', db.auth_user, default=auth.user_id),\n\tField('company_name', 'reference company', notnull=True),\n\tField('description', 'text', notnull=True),\n\tField('start_date', 'date', notnull=True),\n\tField('due_date', 'date', notnull=True),\n\tField('completed', 'boolean', notnull=True),\n\tformat = '%(company_name)s'\n\t)\n\ndb.project.employee_name.readable = db.project.employee_name.writable = False\n\ndb.project.start_date.requires = IS_DATE(format=T('%m-%d-%Y'),\n\terror_message='Must be MM-DD-YYYY!')\n\ndb.project.due_date.requires =IS_DATE(format=T('%m-%d-%Y'),\n\terror_message='Must be MM-DD-YYYY!')\n\ndb.define_table('note',\n\tField('post_id', 'reference project', writable=False),\n\tField('post', 'text', notnull=True),\n\tField('created_on', 'datetime', default=request.now, writable=False),\n\tField('created_by', db.auth_user, default = auth.user_id)\n\t)\n\ndb.note.post_id.readable = db.note.post_id.writable=False\ndb.note.created_on.readable = db.note.created_on.writable=False\ndb.note.created_on.requires = IS_DATE(format=T('%m-%d-%Y'),\n\terror_message='Must be MM-DD-YYYY!')\ndb.note.created_by.readable = db.note.created_by.writable=False\n\n\ndb.define_table('cost_units',\n\tField('name', notnull=True, unique=True),\n\tField('to_USD', notnull=True),\n\tformat = '%(name)s'\n\t)\n\ndb.define_table('energy_units',\n\tField('unit',notnull=True, unique=True),\n\tField('to_btu','float',notnull=True),\n\tformat = '%(unit)s'\n\t)\n\ndb.define_table('buildings',\n\tField('building_name', notnull=True, unique=True),\n\tField('building_area', 'float', notnull=True),\n\tformat = '%(building_name)s'\n\t)\n\ndb.define_table('electric',\n\tField('company_name', 'reference company', notnull=True),\n\n\tField('building_name','reference buildings',notnull=True),\n\t\n\tField('reporting_year', 'float', notnull=True)\n\n\t# Field('total_base_building_usage'),\n\t# Field('total_base_building_usage_units','reference energy_units'),\n\t# Field('total_base_building_cost','float'),\n\t# Field('total_base_building_cost_units', 'reference cost_units'),\n\n\t# Field('total_tenant_submeter_usage'),\n\t# Field('total_tenant_submeter_usage_units','reference energy_units'),\n\t# Field('total_tenant_submeter_cost','float'),\n\t# Field('total_tenant_submeter_cost_units', 'reference cost_units'),\n\n\t# Field('total_tenant_direct_usage'),\n\t# Field('total_tenant_direct_usage_units','reference energy_units'),\n\t# Field('total_tenant_direct_cost','float'),\n\t# Field('total_tenant_direct_cost_units', 'reference cost_units'),\n\t#format = ['%(building_name)s','%(company_name)s']\n\t)"
p7
sS'snapshot'
p8
(dp9
S'exception'
p10
(dp11
S'__module__'
p12
S"'pysqlite2.dbapi2'"
p13
sS'__getslice__'
p14
S"<method-wrapper '__getslice__' of OperationalError object>"
p15
sS'__str__'
p16
S"<method-wrapper '__str__' of OperationalError object>"
p17
sS'__reduce__'
p18
S'<built-in method __reduce__ of OperationalError object>'
p19
sS'__dict__'
p20
S'{}'
p21
sS'__sizeof__'
p22
S'<built-in method __sizeof__ of OperationalError object>'
p23
sS'__weakref__'
p24
S'None'
p25
sS'__init__'
p26
S"<method-wrapper '__init__' of OperationalError object>"
p27
sS'__setattr__'
p28
S"<method-wrapper '__setattr__' of OperationalError object>"
p29
sS'__reduce_ex__'
p30
S'<built-in method __reduce_ex__ of OperationalError object>'
p31
sS'__new__'
p32
S'<built-in method __new__ of type object>'
p33
sS'__format__'
p34
S'<built-in method __format__ of OperationalError object>'
p35
sS'__class__'
p36
S"<class 'pysqlite2.dbapi2.OperationalError'>"
p37
sS'__doc__'
p38
S'None'
p39
sS'__getitem__'
p40
S"<method-wrapper '__getitem__' of OperationalError object>"
p41
sS'__setstate__'
p42
S'<built-in method __setstate__ of OperationalError object>'
p43
sS'__getattribute__'
p44
S"<method-wrapper '__getattribute__' of OperationalError object>"
p45
sS'args'
p46
S"('Cannot add a NOT NULL column with default value NULL',)"
p47
sS'__subclasshook__'
p48
S'<built-in method __subclasshook__ of type object>'
p49
sS'__unicode__'
p50
S'<built-in method __unicode__ of OperationalError object>'
p51
sS'__delattr__'
p52
S"<method-wrapper '__delattr__' of OperationalError object>"
p53
sS'__repr__'
p54
S"<method-wrapper '__repr__' of OperationalError object>"
p55
sS'__hash__'
p56
S"<method-wrapper '__hash__' of OperationalError object>"
p57
ssS'evalue'
p58
S'Cannot add a NOT NULL column with default value NULL'
p59
sS'request'
p60
cgluon.html
XML_unpickle
p61
(S's\x8bY\x00\x00<div><table><tr><td style="font-weight:bold;vertical-align:top;">ajax</td><td style="vertical-align:top;">:</td><td><div>False</div></td></tr><tr><td style="font-weight:bold;vertical-align:top;">application</td><td style="vertical-align:top;">:</td><td><div>py2manager</div></td></tr><tr><td style="font-weight:bold;vertical-align:top;">args</td><td style="vertical-align:top;">:</td><td><div><table></table></div></td></tr><tr><td style="font-weight:bold;vertical-align:top;">cid</td><td style="vertical-align:top;">:</td><td><div>None</div></td></tr><tr><td style="font-weight:bold;vertical-align:top;">client</td><td style="vertical-align:top;">:</td><td><div>127.0.0.1</div></td></tr><tr><td style="font-weight:bold;vertical-align:top;">controller</td><td style="vertical-align:top;">:</td><td><div>appadmin</div></td></tr><tr><td style="font-weight:bold;vertical-align:top;">cookies</td><td style="vertical-align:top;">:</td><td><div><table><tr><td style="font-weight:bold;vertical-align:top;">session_id_admin</td><td style="vertical-align:top;">:</td><td><div>127.0.0.1-4b9b7d8f-d786-4199-8217-39e3e1aab36f<table><tr><td style="font-weight:bold;vertical-align:top;">comment</td><td style="vertical-align:top;">:</td><td><div></div></td></tr><tr><td style="font-weight:bold;vertical-align:top;">domain</td><td style="vertical-align:top;">:</td><td><div></div></td></tr><tr><td style="font-weight:bold;vertical-align:top;">expires</td><td style="vertical-align:top;">:</td><td><div></div></td></tr><tr><td style="font-weight:bold;vertical-align:top;">httponly</td><td style="vertical-align:top;">:</td><td><div></div></td></tr><tr><td style="font-weight:bold;vertical-align:top;">max-age</td><td style="vertical-align:top;">:</td><td><div></div></td></tr><tr><td style="font-weight:bold;vertical-align:top;">path</td><td style="vertical-align:top;">:</td><td><div></div></td></tr><tr><td style="font-weight:bold;vertical-align:top;">secure</td><td style="vertical-align:top;">:</td><td><div></div></td></tr><tr><td style="font-weight:bold;vertical-align:top;">version</td><td style="vertical-align:top;">:</td><td><div></div></td></tr></table></div></td></tr><tr><td style="font-weight:bold;vertical-align:top;">session_id_py2manager</td><td style="vertical-align:top;">:</td><td><div>127.0.0.1-868ee5fc-b2e0-4773-bf58-0cf2622a8e45<table><tr><td style="font-weight:bold;vertical-align:top;">comment</td><td style="vertical-align:top;">:</td><td><div></div></td></tr><tr><td style="font-weight:bold;vertical-align:top;">domain</td><td style="vertical-align:top;">:</td><td><div></div></td></tr><tr><td style="font-weight:bold;vertical-align:top;">expires</td><td style="vertical-align:top;">:</td><td><div></div></td></tr><tr><td style="font-weight:bold;vertical-align:top;">httponly</td><td style="vertical-align:top;">:</td><td><div></div></td></tr><tr><td style="font-weight:bold;vertical-align:top;">max-age</td><td style="vertical-align:top;">:</td><td><div></div></td></tr><tr><td style="font-weight:bold;vertical-align:top;">path</td><td style="vertical-align:top;">:</td><td><div></div></td></tr><tr><td style="font-weight:bold;vertical-align:top;">secure</td><td style="vertical-align:top;">:</td><td><div></div></td></tr><tr><td style="font-weight:bold;vertical-align:top;">version</td><td style="vertical-align:top;">:</td><td><div></div></td></tr></table></div></td></tr><tr><td style="font-weight:bold;vertical-align:top;">session_id_web2blog</td><td style="vertical-align:top;">:</td><td><div>127.0.0.1-42d31259-476f-41e7-9983-df006f316c3e<table><tr><td style="font-weight:bold;vertical-align:top;">comment</td><td style="vertical-align:top;">:</td><td><div></div></td></tr><tr><td style="font-weight:bold;vertical-align:top;">domain</td><td style="vertical-align:top;">:</td><td><div></div></td></tr><tr><td style="font-weight:bold;vertical-align:top;">expires</td><td style="vertical-align:top;">:</td><td><div></div></td></tr><tr><td style="font-weight:bold;vertical-align:top;">httponly</td><td style="vertical-align:top;">:</td><td><div></div></td></tr><tr><td style="font-weight:bold;vertical-align:top;">max-age</td><td style="vertical-align:top;">:</td><td><div></div></td></tr><tr><td style="font-weight:bold;vertical-align:top;">path</td><td style="vertical-align:top;">:</td><td><div></div></td></tr><tr><td style="font-weight:bold;vertical-align:top;">secure</td><td style="vertical-align:top;">:</td><td><div></div></td></tr><tr><td style="font-weight:bold;vertical-align:top;">version</td><td style="vertical-align:top;">:</td><td><div></div></td></tr></table></div></td></tr></table></div></td></tr><tr><td style="font-weight:bold;vertical-align:top;">env</td><td style="vertical-align:top;">:</td><td><div><table><tr><td style="font-weight:bold;vertical-align:top;">HTTP_ACCEPT</td><td style="vertical-align:top;">:</td><td><div>text/html,application/xhtml+xml,application/xml;q=0.9,image/webp,*/*;q=0.8</div></td></tr><tr><td style="font-weight:bold;vertical-align:top;">HTTP_ACCEPT_ENCODING</td><td style="vertical-align:top;">:</td><td><div>gzip,deflate,sdch</div></td></tr><tr><td style="font-weight:bold;vertical-align:top;">HTTP_ACCEPT_LANGUAGE</td><td style="vertical-align:top;">:</td><td><div>en-US,en;q=0.8</div></td></tr><tr><td style="font-weight:bold;vertical-align:top;">HTTP_CACHE_CONTROL</td><td style="vertical-align:top;">:</td><td><div>max-age=0</div></td></tr><tr><td style="font-weight:bold;vertical-align:top;">HTTP_CONNECTION</td><td style="vertical-align:top;">:</td><td><div>keep-alive</div></td></tr><tr><td style="font-weight:bold;vertical-align:top;">HTTP_COOKIE</td><td style="vertical-align:top;">:</td><td><div>session_id_web2blog=127.0.0.1-42d31259-476f-41e7-9983-df006f316c3e; session_id_admin=127.0.0.1-4b9b7d8f-d786-4199-8217-39e3e1aab36f; session_id_py2manager=127.0.0.1-868ee5fc-b2e0-4773-bf58-0cf2622a8e45</div></td></tr><tr><td style="font-weight:bold;vertical-align:top;">HTTP_HOST</td><td style="vertical-align:top;">:</td><td><div>localhost:8000</div></td></tr><tr><td style="font-weight:bold;vertical-align:top;">HTTP_USER_AGENT</td><td style="vertical-align:top;">:</td><td><div>Mozilla/5.0 (X11; Linux x86_64) AppleWebKit/537.36 (KHTML, like Gecko) Ubuntu Chromium/34.0.1847.116 Chrome/34.0.1847.116 Safari/537.36</div></td></tr><tr><td style="font-weight:bold;vertical-align:top;">PATH_INFO</td><td style="vertical-align:top;">:</td><td><div>/appadmin</div></td></tr><tr><td style="font-weight:bold;vertical-align:top;">QUERY_STRING</td><td style="vertical-align:top;">:</td><td><div></div></td></tr><tr><td style="font-weight:bold;vertical-align:top;">REMOTE_ADDR</td><td style="vertical-align:top;">:</td><td><div>127.0.0.1</div></td></tr><tr><td style="font-weight:bold;vertical-align:top;">REMOTE_PORT</td><td style="vertical-align:top;">:</td><td><div>42433</div></td></tr><tr><td style="font-weight:bold;vertical-align:top;">REQUEST_METHOD</td><td style="vertical-align:top;">:</td><td><div>GET</div></td></tr><tr><td style="font-weight:bold;vertical-align:top;">SCRIPT_NAME</td><td style="vertical-align:top;">:</td><td><div></div></td></tr><tr><td style="font-weight:bold;vertical-align:top;">SERVER_NAME</td><td style="vertical-align:top;">:</td><td><div>House</div></td></tr><tr><td style="font-weight:bold;vertical-align:top;">SERVER_PORT</td><td style="vertical-align:top;">:</td><td><div>8000</div></td></tr><tr><td style="font-weight:bold;vertical-align:top;">SERVER_PROTOCOL</td><td style="vertical-align:top;">:</td><td><div>HTTP/1.1</div></td></tr><tr><td style="font-weight:bold;vertical-align:top;">SERVER_SOFTWARE</td><td style="vertical-align:top;">:</td><td><div>Rocket 1.2.6</div></td></tr><tr><td style="font-weight:bold;vertical-align:top;">app_folders</td><td style="vertical-align:top;">:</td><td><div>set([&#x27;/home/wantsomechocolate/Code/py2manager/applications/py2manager/&#x27;, &#x27;/home/wantsomechocolate/Code/py2manager/applications/admin/&#x27;])</div></td></tr><tr><td style="font-weight:bold;vertical-align:top;">applications_parent</td><td style="vertical-align:top;">:</td><td><div>/home/wantsomechocolate/Code/py2manager</div></td></tr><tr><td style="font-weight:bold;vertical-align:top;">cmd_args</td><td style="vertical-align:top;">:</td><td><div><table></table></div></td></tr><tr><td style="font-weight:bold;vertical-align:top;">cmd_options</td><td style="vertical-align:top;">:</td><td><div>&lt;Values at 0x1f72518: {&#x27;verbose&#x27;: False, &#x27;ip&#x27;: &#x27;127.0.0.1&#x27;, &#x27;debuglevel&#x27;: 30, &#x27;with_scheduler&#x27;: False, &#x27;ips&#x27;: [&#x27;127.0.1.1&#x27;], &#x27;shutdown_timeout&#x27;: 5, &#x27;taskbar&#x27;: False, &#x27;with_coverage&#x27;: False, &#x27;port&#x27;: 8000, &#x27;maxthreads&#x27;: None, &#x27;softcron&#x27;: False, &#x27;server_name&#x27;: &#x27;House&#x27;, &#x27;bpython&#x27;: False, &#x27;nogui&#x27;: False, &#x27;pid_filename&#x27;: &#x27;httpserver.pid&#x27;, &#x27;extcron&#x27;: False, &#x27;runcron&#x27;: False, &#x27;run_system_tests&#x27;: False, &#x27;test&#x27;: None, &#x27;folder&#x27;: &#x27;/home/wantsomechocolate/Code/py2manager&#x27;, &#x27;config&#x27;: &#x27;&#x27;, &#x27;minthreads&#x27;: None, &#x27;shell&#x27;: None, &#x27;run&#x27;: &#x27;&#x27;, &#x27;log_filename&#x27;: &#x27;httpserver.log&#x27;, &#x27;profiler_dir&#x27;: None, &#x27;args&#x27;: [&#x27;&#x27;], &#x27;socket_timeout&#x27;: 5, &#x27;ssl_ca_certificate&#x27;: None, &#x27;scheduler&#x27;: None, &#x27;interfaces&#x27;: None, &#x27;ssl_private_key&#x27;: &#x27;&#x27;, &#x27;scheduler_groups&#x27;: None, &#x27;password&#x27;: &#x27;asdfasdf&#x27;, &#x27;request_queue_size&#x27;: 5, &#x27;ssl_certificate&#x27;: &#x27;&#x27;, &#x27;cronjob&#x27;: False, &#x27;numthreads&#x27;: None, &#x27;quiet&#x27;: False, &#x27;import_models&#x27;: False, &#x27;timeout&#x27;: 10, &#x27;plain&#x27;: False, &#x27;nobanner&#x27;: False}&gt;</div></td></tr><tr><td style="font-weight:bold;vertical-align:top;">db_sessions</td><td style="vertical-align:top;">:</td><td><div>set([])</div></td></tr><tr><td style="font-weight:bold;vertical-align:top;">debugging</td><td style="vertical-align:top;">:</td><td><div>False</div></td></tr><tr><td style="font-weight:bold;vertical-align:top;">gluon_parent</td><td style="vertical-align:top;">:</td><td><div>/home/wantsomechocolate/Code/py2manager</div></td></tr><tr><td style="font-weight:bold;vertical-align:top;">http_accept</td><td style="vertical-align:top;">:</td><td><div>text/html,application/xhtml+xml,application/xml;q=0.9,image/webp,*/*;q=0.8</div></td></tr><tr><td style="font-weight:bold;vertical-align:top;">http_accept_encoding</td><td style="vertical-align:top;">:</td><td><div>gzip,deflate,sdch</div></td></tr><tr><td style="font-weight:bold;vertical-align:top;">http_accept_language</td><td style="vertical-align:top;">:</td><td><div>en-US,en;q=0.8</div></td></tr><tr><td style="font-weight:bold;vertical-align:top;">http_cache_control</td><td style="vertical-align:top;">:</td><td><div>max-age=0</div></td></tr><tr><td style="font-weight:bold;vertical-align:top;">http_connection</td><td style="vertical-align:top;">:</td><td><div>keep-alive</div></td></tr><tr><td style="font-weight:bold;vertical-align:top;">http_cookie</td><td style="vertical-align:top;">:</td><td><div>session_id_web2blog=127.0.0.1-42d31259-476f-41e7-9983-df006f316c3e; session_id_admin=127.0.0.1-4b9b7d8f-d786-4199-8217-39e3e1aab36f; session_id_py2manager=127.0.0.1-868ee5fc-b2e0-4773-bf58-0cf2622a8e45</div></td></tr><tr><td style="font-weight:bold;vertical-align:top;">http_host</td><td style="vertical-align:top;">:</td><td><div>localhost:8000</div></td></tr><tr><td style="font-weight:bold;vertical-align:top;">http_user_agent</td><td style="vertical-align:top;">:</td><td><div>Mozilla/5.0 (X11; Linux x86_64) AppleWebKit/537.36 (KHTML, like Gecko) Ubuntu Chromium/34.0.1847.116 Chrome/34.0.1847.116 Safari/537.36</div></td></tr><tr><td style="font-weight:bold;vertical-align:top;">is_jython</td><td style="vertical-align:top;">:</td><td><div>False</div></td></tr><tr><td style="font-weight:bold;vertical-align:top;">is_pypy</td><td style="vertical-align:top;">:</td><td><div>False</div></td></tr><tr><td style="font-weight:bold;vertical-align:top;">is_source</td><td style="vertical-align:top;">:</td><td><div>True</div></td></tr><tr><td style="font-weight:bold;vertical-align:top;">local_hosts</td><td style="vertical-align:top;">:</td><td><div><table><tr><td><div>House</div></td></tr><tr><td><div>::1</div></td></tr><tr><td><div>127.0.1.1</div></td></tr><tr><td><div>::ffff:127.0.0.1</div></td></tr><tr><td><div>127.0.0.1</div></td></tr></table></div></td></tr><tr><td style="font-weight:bold;vertical-align:top;">path_info</td><td style="vertical-align:top;">:</td><td><div>/appadmin</div></td></tr><tr><td style="font-weight:bold;vertical-align:top;">query_string</td><td style="vertical-align:top;">:</td><td><div></div></td></tr><tr><td style="font-weight:bold;vertical-align:top;">remote_addr</td><td style="vertical-align:top;">:</td><td><div>127.0.0.1</div></td></tr><tr><td style="font-weight:bold;vertical-align:top;">remote_port</td><td style="vertical-align:top;">:</td><td><div>42433</div></td></tr><tr><td style="font-weight:bold;vertical-align:top;">request_method</td><td style="vertical-align:top;">:</td><td><div>GET</div></td></tr><tr><td style="font-weight:bold;vertical-align:top;">request_uri</td><td style="vertical-align:top;">:</td><td><div>/py2manager/appadmin/index</div></td></tr><tr><td style="font-weight:bold;vertical-align:top;">script_name</td><td style="vertical-align:top;">:</td><td><div></div></td></tr><tr><td style="font-weight:bold;vertical-align:top;">server_name</td><td style="vertical-align:top;">:</td><td><div>House</div></td></tr><tr><td style="font-weight:bold;vertical-align:top;">server_port</td><td style="vertical-align:top;">:</td><td><div>8000</div></td></tr><tr><td style="font-weight:bold;vertical-align:top;">server_protocol</td><td style="vertical-align:top;">:</td><td><div>HTTP/1.1</div></td></tr><tr><td style="font-weight:bold;vertical-align:top;">server_software</td><td style="vertical-align:top;">:</td><td><div>Rocket 1.2.6</div></td></tr><tr><td style="font-weight:bold;vertical-align:top;">web2py_original_uri</td><td style="vertical-align:top;">:</td><td><div>/appadmin</div></td></tr><tr><td style="font-weight:bold;vertical-align:top;">web2py_path</td><td style="vertical-align:top;">:</td><td><div>/home/wantsomechocolate/Code/py2manager</div></td></tr><tr><td style="font-weight:bold;vertical-align:top;">web2py_version</td><td style="vertical-align:top;">:</td><td><div>2.9.5-stable+timestamp.2014.03.16.02.35.39</div></td></tr><tr><td style="font-weight:bold;vertical-align:top;">wsgi.errors</td><td style="vertical-align:top;">:</td><td><div>&lt;open file &#x27;&lt;stderr&gt;&#x27;, mode &#x27;w&#x27; at 0x7fa7153651e0&gt;</div></td></tr><tr><td style="font-weight:bold;vertical-align:top;">wsgi.file_wrapper</td><td style="vertical-align:top;">:</td><td><div>&lt;class wsgiref.util.FileWrapper at 0x1ee58d8&gt;</div></td></tr><tr><td style="font-weight:bold;vertical-align:top;">wsgi.input</td><td style="vertical-align:top;">:</td><td><div>&lt;socket._fileobject object at 0x7fa7084c5a50&gt;</div></td></tr><tr><td style="font-weight:bold;vertical-align:top;">wsgi.multiprocess</td><td style="vertical-align:top;">:</td><td><div>False</div></td></tr><tr><td style="font-weight:bold;vertical-align:top;">wsgi.multithread</td><td style="vertical-align:top;">:</td><td><div>True</div></td></tr><tr><td style="font-weight:bold;vertical-align:top;">wsgi.run_once</td><td style="vertical-align:top;">:</td><td><div>False</div></td></tr><tr><td style="font-weight:bold;vertical-align:top;">wsgi.url_scheme</td><td style="vertical-align:top;">:</td><td><div>http</div></td></tr><tr><td style="font-weight:bold;vertical-align:top;">wsgi.version</td><td style="vertical-align:top;">:</td><td><div><table><tr><td><div>1</div></td></tr><tr><td><div>0</div></td></tr></table></div></td></tr><tr><td style="font-weight:bold;vertical-align:top;">wsgi_errors</td><td style="vertical-align:top;">:</td><td><div>&lt;open file &#x27;&lt;stderr&gt;&#x27;, mode &#x27;w&#x27; at 0x7fa7153651e0&gt;</div></td></tr><tr><td style="font-weight:bold;vertical-align:top;">wsgi_file_wrapper</td><td style="vertical-align:top;">:</td><td><div>&lt;class wsgiref.util.FileWrapper at 0x1ee58d8&gt;</div></td></tr><tr><td style="font-weight:bold;vertical-align:top;">wsgi_input</td><td style="vertical-align:top;">:</td><td><div>&lt;socket._fileobject object at 0x7fa7084c5a50&gt;</div></td></tr><tr><td style="font-weight:bold;vertical-align:top;">wsgi_multiprocess</td><td style="vertical-align:top;">:</td><td><div>False</div></td></tr><tr><td style="font-weight:bold;vertical-align:top;">wsgi_multithread</td><td style="vertical-align:top;">:</td><td><div>True</div></td></tr><tr><td style="font-weight:bold;vertical-align:top;">wsgi_run_once</td><td style="vertical-align:top;">:</td><td><div>False</div></td></tr><tr><td style="font-weight:bold;vertical-align:top;">wsgi_url_scheme</td><td style="vertical-align:top;">:</td><td><div>http</div></td></tr><tr><td style="font-weight:bold;vertical-align:top;">wsgi_version</td><td style="vertical-align:top;">:</td><td><div><table><tr><td><div>1</div></td></tr><tr><td><div>0</div></td></tr></table></div></td></tr></table></div></td></tr><tr><td style="font-weight:bold;vertical-align:top;">extension</td><td style="vertical-align:top;">:</td><td><div>html</div></td></tr><tr><td style="font-weight:bold;vertical-align:top;">folder</td><td style="vertical-align:top;">:</td><td><div>/home/wantsomechocolate/Code/py2manager/applications/py2manager/</div></td></tr><tr><td style="font-weight:bold;vertical-align:top;">function</td><td style="vertical-align:top;">:</td><td><div>index</div></td></tr><tr><td style="font-weight:bold;vertical-align:top;">global_settings</td><td style="vertical-align:top;">:</td><td><div><table><tr><td style="font-weight:bold;vertical-align:top;">app_folders</td><td style="vertical-align:top;">:</td><td><div>set([&#x27;/home/wantsomechocolate/Code/py2manager/applications/py2manager/&#x27;, &#x27;/home/wantsomechocolate/Code/py2manager/applications/admin/&#x27;])</div></td></tr><tr><td style="font-weight:bold;vertical-align:top;">applications_parent</td><td style="vertical-align:top;">:</td><td><div>/home/wantsomechocolate/Code/py2manager</div></td></tr><tr><td style="font-weight:bold;vertical-align:top;">cmd_args</td><td style="vertical-align:top;">:</td><td><div><table></table></div></td></tr><tr><td style="font-weight:bold;vertical-align:top;">cmd_options</td><td style="vertical-align:top;">:</td><td><div>&lt;Values at 0x1f72518: {&#x27;verbose&#x27;: False, &#x27;ip&#x27;: &#x27;127.0.0.1&#x27;, &#x27;debuglevel&#x27;: 30, &#x27;with_scheduler&#x27;: False, &#x27;ips&#x27;: [&#x27;127.0.1.1&#x27;], &#x27;shutdown_timeout&#x27;: 5, &#x27;taskbar&#x27;: False, &#x27;with_coverage&#x27;: False, &#x27;port&#x27;: 8000, &#x27;maxthreads&#x27;: None, &#x27;softcron&#x27;: False, &#x27;server_name&#x27;: &#x27;House&#x27;, &#x27;bpython&#x27;: False, &#x27;nogui&#x27;: False, &#x27;pid_filename&#x27;: &#x27;httpserver.pid&#x27;, &#x27;extcron&#x27;: False, &#x27;runcron&#x27;: False, &#x27;run_system_tests&#x27;: False, &#x27;test&#x27;: None, &#x27;folder&#x27;: &#x27;/home/wantsomechocolate/Code/py2manager&#x27;, &#x27;config&#x27;: &#x27;&#x27;, &#x27;minthreads&#x27;: None, &#x27;shell&#x27;: None, &#x27;run&#x27;: &#x27;&#x27;, &#x27;log_filename&#x27;: &#x27;httpserver.log&#x27;, &#x27;profiler_dir&#x27;: None, &#x27;args&#x27;: [&#x27;&#x27;], &#x27;socket_timeout&#x27;: 5, &#x27;ssl_ca_certificate&#x27;: None, &#x27;scheduler&#x27;: None, &#x27;interfaces&#x27;: None, &#x27;ssl_private_key&#x27;: &#x27;&#x27;, &#x27;scheduler_groups&#x27;: None, &#x27;password&#x27;: &#x27;asdfasdf&#x27;, &#x27;request_queue_size&#x27;: 5, &#x27;ssl_certificate&#x27;: &#x27;&#x27;, &#x27;cronjob&#x27;: False, &#x27;numthreads&#x27;: None, &#x27;quiet&#x27;: False, &#x27;import_models&#x27;: False, &#x27;timeout&#x27;: 10, &#x27;plain&#x27;: False, &#x27;nobanner&#x27;: False}&gt;</div></td></tr><tr><td style="font-weight:bold;vertical-align:top;">db_sessions</td><td style="vertical-align:top;">:</td><td><div>set([])</div></td></tr><tr><td style="font-weight:bold;vertical-align:top;">debugging</td><td style="vertical-align:top;">:</td><td><div>False</div></td></tr><tr><td style="font-weight:bold;vertical-align:top;">gluon_parent</td><td style="vertical-align:top;">:</td><td><div>/home/wantsomechocolate/Code/py2manager</div></td></tr><tr><td style="font-weight:bold;vertical-align:top;">is_jython</td><td style="vertical-align:top;">:</td><td><div>False</div></td></tr><tr><td style="font-weight:bold;vertical-align:top;">is_pypy</td><td style="vertical-align:top;">:</td><td><div>False</div></td></tr><tr><td style="font-weight:bold;vertical-align:top;">is_source</td><td style="vertical-align:top;">:</td><td><div>True</div></td></tr><tr><td style="font-weight:bold;vertical-align:top;">local_hosts</td><td style="vertical-align:top;">:</td><td><div><table><tr><td><div>House</div></td></tr><tr><td><div>::1</div></td></tr><tr><td><div>127.0.1.1</div></td></tr><tr><td><div>::ffff:127.0.0.1</div></td></tr><tr><td><div>127.0.0.1</div></td></tr></table></div></td></tr><tr><td style="font-weight:bold;vertical-align:top;">web2py_version</td><td style="vertical-align:top;">:</td><td><div>2.9.5-stable+timestamp.2014.03.16.02.35.39</div></td></tr></table></div></td></tr><tr><td style="font-weight:bold;vertical-align:top;">is_https</td><td style="vertical-align:top;">:</td><td><div>False</div></td></tr><tr><td style="font-weight:bold;vertical-align:top;">is_local</td><td style="vertical-align:top;">:</td><td><div>True</div></td></tr><tr><td style="font-weight:bold;vertical-align:top;">is_restful</td><td style="vertical-align:top;">:</td><td><div>False</div></td></tr><tr><td style="font-weight:bold;vertical-align:top;">now</td><td style="vertical-align:top;">:</td><td><div>datetime.datetime(2014, 7, 15, 19, 59, 43, 188261)</div></td></tr><tr><td style="font-weight:bold;vertical-align:top;">url</td><td style="vertical-align:top;">:</td><td><div>/appadmin</div></td></tr><tr><td style="font-weight:bold;vertical-align:top;">utcnow</td><td style="vertical-align:top;">:</td><td><div>datetime.datetime(2014, 7, 15, 23, 59, 43, 188286)</div></td></tr><tr><td style="font-weight:bold;vertical-align:top;">uuid</td><td style="vertical-align:top;">:</td><td><div>py2manager/127.0.0.1.2014-07-15.19-59-43.c3ddcf0f-2aba-4903-9d6d-ab4d5ca62609</div></td></tr><tr><td style="font-weight:bold;vertical-align:top;">wsgi</td><td style="vertical-align:top;">:</td><td><div>&lt;gluon.main.LazyWSGI object at 0x7fa704152450&gt;</div></td></tr></table></div>'
tRp62
sS'frames'
p63
(lp64
(dp65
S'file'
p66
S'/home/wantsomechocolate/Code/py2manager/gluon/restricted.py'
p67
sS'dump'
p68
(dp69
S'environment'
p70
S"{'A': <class 'gluon.html.A'>, 'ANY_OF': <class 'gluon.validators.ANY_OF'>, 'Auth': <class 'gluon.tools.Auth'>, 'B': <class 'gluon.html.B'>, 'BEAUTIFY': <class 'gluon.html.BEAUTIFY'>, 'BODY': <class 'gluon.html.BODY'>, 'BR': <class 'gluon.html.BR'>, 'BUTTON': <class 'gluon.html.BUTTON'>, 'CAT': <class 'gluon.html.CAT'>, 'CENTER': <class 'gluon.html.CENTER'>, ...}"
p71
sS'ccode'
p72
S'<code object <module> at 0x7fa6f00b2bb0, file "/...lications/py2manager/models/db_tasks.py", line 1>'
p73
ssS'lnum'
p74
I220
sS'lines'
p75
(dp76
I224
S'        # do not encapsulate (obfuscate) the original RestrictedError'
p77
sI215
S'    try:'
p78
sI216
S'        if isinstance(code, types.CodeType):'
p79
sI217
S'            ccode = code'
p80
sI218
S'        else:'
p81
sI219
S'            ccode = compile2(code, layer)'
p82
sI220
S'        exec ccode in environment'
p83
sI221
S'    except HTTP:'
p84
sI222
S'        raise'
p85
sI223
S'    except RestrictedError:'
p86
ssS'call'
p87
S'(code="db.define_table(\'company\',\\n\\tField(\'company_name\'...mat = [\'%(building_name)s\',\'%(company_name)s\']\\n\\t)", environment={\'A\': <class \'gluon.html.A\'>, \'ANY_OF\': <class \'gluon.validators.ANY_OF\'>, \'Auth\': <class \'gluon.tools.Auth\'>, \'B\': <class \'gluon.html.B\'>, \'BEAUTIFY\': <class \'gluon.html.BEAUTIFY\'>, \'BODY\': <class \'gluon.html.BODY\'>, \'BR\': <class \'gluon.html.BR\'>, \'BUTTON\': <class \'gluon.html.BUTTON\'>, \'CAT\': <class \'gluon.html.CAT\'>, \'CENTER\': <class \'gluon.html.CENTER\'>, ...}, layer=\'/home/wantsomechocolate/Code/py2manager/applications/py2manager/models/db_tasks.py\')'
p88
sS'func'
p89
S'restricted'
p90
sa(dp91
g66
S'/home/wantsomechocolate/Code/py2manager/applications/py2manager/models/db_tasks.py'
p92
sg68
(dp93
S'Field'
p94
S"<class 'gluon.dal.Field'>"
p95
sS'builtinTrue'
p96
S'True'
p97
sS'notnull'
p98
S'undefined'
p99
ssg74
I68
sg75
(dp100
I64
S"\tField('company_name', 'reference company', notnull=True),"
p101
sI65
S''
sI66
S"\tField('building_name','reference buildings',notnull=True),"
p102
sI67
S''
sI68
S"\tField('reporting_year', 'float', notnull=True)"
p103
sI69
S''
sI70
S"\t# Field('total_base_building_usage'),"
p104
sI71
S"\t# Field('total_base_building_usage_units','reference energy_units'),"
p105
sI72
S"\t# Field('total_base_building_cost','float'),"
p106
sI63
S"db.define_table('electric',"
p107
ssg87
S'()'
p108
sg89
S'<module>'
p109
sa(dp110
g66
S'/home/wantsomechocolate/Code/py2manager/gluon/dal.py'
p111
sg68
(dp112
S'fields'
p113
S'(<gluon.dal.Field object>, <gluon.dal.Field object>, <gluon.dal.Field object>)'
p114
sS'self'
p115
S'<DAL uri="sqlite://storage.sqlite">'
p116
sS'args'
p117
g21
sS'tablename'
p118
S"'electric'"
p119
sS'table'
p120
g99
sS'self.lazy_define_table'
p121
S'<bound method DAL.lazy_define_table of <DAL uri="sqlite://storage.sqlite">>'
p122
ssg74
I8223
sg75
(dp123
I8224
S'        if not tablename in self.tables:'
p124
sI8225
S'            self.tables.append(tablename)'
p125
sI8226
S'        return table'
p126
sI8227
S''
sI8218
S'                    % (tablename,invalid_args))'
p127
sI8219
S'        if self._lazy_tables and not tablename in self._LAZY_TABLES:'
p128
sI8220
S'            self._LAZY_TABLES[tablename] = (tablename,fields,args)'
p129
sI8221
S'            table = None'
p130
sI8222
S'        else:'
p131
sI8223
S'            table = self.lazy_define_table(tablename,*fields,**args)'
p132
ssg87
S'(self=<DAL uri="sqlite://storage.sqlite">, tablename=\'electric\', *fields=(<gluon.dal.Field object>, <gluon.dal.Field object>, <gluon.dal.Field object>), **args={})'
p133
sg89
S'define_table'
p134
sa(dp135
g66
S'/home/wantsomechocolate/Code/py2manager/gluon/dal.py'
p136
sg68
(dp137
S'polymodel'
p138
S'None'
p139
ssg74
I8260
sg75
(dp140
I8256
S'                GLOBAL_LOCKER.acquire()'
p141
sI8257
S'                self._lastsql = self._adapter.create_table('
p142
sI8258
S'                    table,migrate=migrate,'
p143
sI8259
S'                    fake_migrate=fake_migrate,'
p144
sI8260
S'                    polymodel=polymodel)'
p145
sI8261
S'            finally:'
p146
sI8262
S'                GLOBAL_LOCKER.release()'
p147
sI8263
S'        else:'
p148
sI8264
S'            table._dbt = None'
p149
sI8255
S'            try:'
p150
ssg87
S'(self=<DAL uri="sqlite://storage.sqlite">, tablename=\'electric\', *fields=(<gluon.dal.Field object>, <gluon.dal.Field object>, <gluon.dal.Field object>), **args={})'
p151
sg89
S'lazy_define_table'
p152
sa(dp153
g66
S'/home/wantsomechocolate/Code/py2manager/gluon/dal.py'
p154
sg68
(dp155
S'fake_migrate'
p156
S'False'
p157
ssg74
I1132
sg75
(dp158
I1127
S'            if sql_fields != sql_fields_old:'
p159
sI1128
S'                self.migrate_table('
p160
sI1129
S'                    table,'
p161
sI1130
S'                    sql_fields, sql_fields_old,'
p162
sI1131
S'                    sql_fields_aux, None,'
p163
sI1132
S'                    fake_migrate=fake_migrate'
p164
sI1133
S'                    )'
p165
sI1134
S'        return query'
p166
sI1135
S''
sI1136
S'    def migrate_table('
p167
ssg87
S'(self=<gluon.dal.SQLiteAdapter object>, table=<Table electric (id,company_name,building_name,reporting_year)>, migrate=True, fake_migrate=False, polymodel=None)'
p168
sg89
S'create_table'
p169
sa(dp170
g66
S'/home/wantsomechocolate/Code/py2manager/gluon/dal.py'
p171
sg68
(dp172
S'self'
p173
S'<gluon.dal.SQLiteAdapter object>'
p174
sS'self.execute'
p175
S'<bound method SQLiteAdapter.execute of <gluon.dal.SQLiteAdapter object>>'
p176
sS'sub_query'
p177
S"'ALTER TABLE electric ADD reporting_year DOUBLE NOT NULL;'"
p178
ssg74
I1245
sg75
(dp179
I1248
S'                        # in one transaction so we must commit'
p180
sI1249
S'                        # partial transactions and'
p181
sI1240
S'                    if fake_migrate:'
p182
sI1241
S'                        if db._adapter.commit_on_alter_table:'
p183
sI1242
S'                            self.save_dbt(table,sql_fields_current)'
p184
sI1243
S"                        self.log('faked!\\n', table)"
p185
sI1244
S'                    else:'
p186
sI1245
S'                        self.execute(sub_query)'
p187
sI1246
S'                        # Caveat: mysql, oracle and firebird'
p188
sI1247
S'                        # do not allow multiple alter table'
p189
ssg87
S"(self=<gluon.dal.SQLiteAdapter object>, table=<Table electric (id,company_name,building_name,reporting_year)>, sql_fields={'building_name': {'length': 512, 'notnull': True, 'sortable': 3, 'sql': 'INTEGER REFERENCES buildings (id) ON DELETE CASCADE', 'type': 'reference buildings', 'unique': False}, 'company_name': {'length': 512, 'notnull': True, 'sortable': 2, 'sql': 'INTEGER REFERENCES company (id) ON DELETE CASCADE', 'type': 'reference company', 'unique': False}, 'id': {'length': 512, 'notnull': False, 'sortable': 1, 'sql': 'INTEGER PRIMARY KEY AUTOINCREMENT', 'type': 'id', 'unique': False}, 'reporting_year': {'length': 512, 'notnull': True, 'sortable': 4, 'sql': 'DOUBLE NOT NULL', 'type': 'float', 'unique': False}}, sql_fields_old={'building_name': {'length': 512, 'notnull': True, 'sortable': 3, 'sql': 'INTEGER REFERENCES buildings (id) ON DELETE CASCADE', 'type': 'reference buildings', 'unique': False}, 'company_name': {'length': 512, 'notnull': True, 'sortable': 2, 'sql': 'INTEGER REFERENCES company (id) ON DELETE CASCADE', 'type': 'reference company', 'unique': False}, 'id': {'length': 512, 'notnull': False, 'sortable': 1, 'sql': 'INTEGER PRIMARY KEY AUTOINCREMENT', 'type': 'id', 'unique': False}}, sql_fields_aux={'building_name': {'sql': 'INTEGER REFERENCES buildings (id) ON DELETE CASCADE'}, 'company_name': {'sql': 'INTEGER REFERENCES company (id) ON DELETE CASCADE'}, 'id': {'sql': 'INTEGER PRIMARY KEY AUTOINCREMENT'}, 'reporting_year': {'sql': 'DOUBLE NOT NULL'}}, logfile=None, fake_migrate=False)"
p190
sg89
S'migrate_table'
p191
sa(dp192
g66
S'/home/wantsomechocolate/Code/py2manager/gluon/dal.py'
p193
sg68
(dp194
S'a'
S"('ALTER TABLE electric ADD reporting_year DOUBLE NOT NULL;',)"
p195
sS'self'
p196
S'<gluon.dal.SQLiteAdapter object>'
p197
sS'b'
g21
sS'self.log_execute'
p198
S'<bound method SQLiteAdapter.log_execute of <gluon.dal.SQLiteAdapter object>>'
p199
ssg74
I1969
sg75
(dp200
I1964
S'        self.db._timings.append((command,time.time()-t0))'
p201
sI1965
S'        del self.db._timings[:-TIMINGSSIZE]'
p202
sI1966
S'        return ret'
p203
sI1967
S''
sI1968
S'    def execute(self, *a, **b):'
p204
sI1969
S'        return self.log_execute(*a, **b)'
p205
sI1970
S''
sI1971
S'    def represent(self, obj, fieldtype):'
p206
sI1972
S'        field_is_type = fieldtype.startswith'
p207
sI1973
S'        if isinstance(obj, CALLABLETYPES):'
p208
ssg87
S"(self=<gluon.dal.SQLiteAdapter object>, *a=('ALTER TABLE electric ADD reporting_year DOUBLE NOT NULL;',), **b={})"
p209
sg89
S'execute'
p210
sa(dp211
g66
S'/home/wantsomechocolate/Code/py2manager/gluon/dal.py'
p212
sg68
(dp213
S'a'
S"('ALTER TABLE electric ADD reporting_year DOUBLE NOT NULL;',)"
p214
sS'b'
g21
sS'self'
p215
S'<gluon.dal.SQLiteAdapter object>'
p216
sS'ret'
p217
g99
sS'self.cursor'
p218
S'<pysqlite2.dbapi2.Cursor object>'
p219
sS'command'
p220
S"'ALTER TABLE electric ADD reporting_year DOUBLE NOT NULL;'"
p221
sS'self.cursor.execute'
p222
S'<built-in method execute of pysqlite2.dbapi2.Cursor object>'
p223
ssg74
I1963
sg75
(dp224
I1958
S'            command = self.filter_sql_command(command)'
p225
sI1959
S'        if self.db._debug:'
p226
sI1960
S"            LOGGER.debug('SQL: %s' % command)"
p227
sI1961
S'        self.db._lastsql = command'
p228
sI1962
S'        t0 = time.time()'
p229
sI1963
S'        ret = self.cursor.execute(command, *a[1:], **b)'
p230
sI1964
S'        self.db._timings.append((command,time.time()-t0))'
p231
sI1965
S'        del self.db._timings[:-TIMINGSSIZE]'
p232
sI1966
S'        return ret'
p233
sI1967
S''
ssg87
S"(self=<gluon.dal.SQLiteAdapter object>, *a=('ALTER TABLE electric ADD reporting_year DOUBLE NOT NULL;',), **b={})"
p234
sg89
S'log_execute'
p235
sasS'pyver'
p236
S'Python 2.7.5+: /usr/bin/python (prefix: /usr)'
p237
sS'session'
p238
g61
(S's\xb7\x01\x00\x00<div><table><tr><td style="font-weight:bold;vertical-align:top;">flash</td><td style="vertical-align:top;">:</td><td><div></div></td></tr><tr><td style="font-weight:bold;vertical-align:top;">last_orderby</td><td style="vertical-align:top;">:</td><td><div>None</div></td></tr><tr><td style="font-weight:bold;vertical-align:top;">last_query</td><td style="vertical-align:top;">:</td><td><div>db.electric.id&gt;0</div></td></tr></table></div>'
tRp239
sS'etype'
p240
S"<class 'pysqlite2.dbapi2.OperationalError'>"
p241
sS'date'
p242
S'Tue Jul 15 19:59:43 2014'
p243
sS'response'
p244
g61
(S's\x08\x17\x00\x00<div><table><tr><td style="font-weight:bold;vertical-align:top;">body</td><td style="vertical-align:top;">:</td><td><div>&lt;cStringIO.StringO object at 0x7fa7086247d8&gt;</div></td></tr><tr><td style="font-weight:bold;vertical-align:top;">cookies</td><td style="vertical-align:top;">:</td><td><div><table><tr><td style="font-weight:bold;vertical-align:top;">session_id_py2manager</td><td style="vertical-align:top;">:</td><td><div>127.0.0.1-868ee5fc-b2e0-4773-bf58-0cf2622a8e45<table><tr><td style="font-weight:bold;vertical-align:top;">comment</td><td style="vertical-align:top;">:</td><td><div></div></td></tr><tr><td style="font-weight:bold;vertical-align:top;">domain</td><td style="vertical-align:top;">:</td><td><div></div></td></tr><tr><td style="font-weight:bold;vertical-align:top;">expires</td><td style="vertical-align:top;">:</td><td><div></div></td></tr><tr><td style="font-weight:bold;vertical-align:top;">httponly</td><td style="vertical-align:top;">:</td><td><div></div></td></tr><tr><td style="font-weight:bold;vertical-align:top;">max-age</td><td style="vertical-align:top;">:</td><td><div></div></td></tr><tr><td style="font-weight:bold;vertical-align:top;">path</td><td style="vertical-align:top;">:</td><td><div>/</div></td></tr><tr><td style="font-weight:bold;vertical-align:top;">secure</td><td style="vertical-align:top;">:</td><td><div></div></td></tr><tr><td style="font-weight:bold;vertical-align:top;">version</td><td style="vertical-align:top;">:</td><td><div></div></td></tr></table></div></td></tr></table></div></td></tr><tr><td style="font-weight:bold;vertical-align:top;">delimiters</td><td style="vertical-align:top;">:</td><td><div><table><tr><td><div>{{</div></td></tr><tr><td><div>}}</div></td></tr></table></div></td></tr><tr><td style="font-weight:bold;vertical-align:top;">files</td><td style="vertical-align:top;">:</td><td><div><table></table></div></td></tr><tr><td style="font-weight:bold;vertical-align:top;">flash</td><td style="vertical-align:top;">:</td><td><div></div></td></tr><tr><td style="font-weight:bold;vertical-align:top;">generic_patterns</td><td style="vertical-align:top;">:</td><td><div><table><tr><td><div>*</div></td></tr></table></div></td></tr><tr><td style="font-weight:bold;vertical-align:top;">headers</td><td style="vertical-align:top;">:</td><td><div><table><tr><td style="font-weight:bold;vertical-align:top;">X-Powered-By</td><td style="vertical-align:top;">:</td><td><div>web2py</div></td></tr></table></div></td></tr><tr><td style="font-weight:bold;vertical-align:top;">menu</td><td style="vertical-align:top;">:</td><td><div><table></table></div></td></tr><tr><td style="font-weight:bold;vertical-align:top;">meta</td><td style="vertical-align:top;">:</td><td><div><table></table></div></td></tr><tr><td style="font-weight:bold;vertical-align:top;">models_to_run</td><td style="vertical-align:top;">:</td><td><div><table><tr><td><div>^\\w+\\.py$</div></td></tr><tr><td><div>^appadmin/\\w+\\.py$</div></td></tr><tr><td><div>^appadmin/index/\\w+\\.py$</div></td></tr></table></div></td></tr><tr><td style="font-weight:bold;vertical-align:top;">postprocessing</td><td style="vertical-align:top;">:</td><td><div><table></table></div></td></tr><tr><td style="font-weight:bold;vertical-align:top;">session_client</td><td style="vertical-align:top;">:</td><td><div>127.0.0.1</div></td></tr><tr><td style="font-weight:bold;vertical-align:top;">session_cookie_compression_level</td><td style="vertical-align:top;">:</td><td><div>None</div></td></tr><tr><td style="font-weight:bold;vertical-align:top;">session_cookie_expires</td><td style="vertical-align:top;">:</td><td><div>None</div></td></tr><tr><td style="font-weight:bold;vertical-align:top;">session_cookie_key</td><td style="vertical-align:top;">:</td><td><div>None</div></td></tr><tr><td style="font-weight:bold;vertical-align:top;">session_data_name</td><td style="vertical-align:top;">:</td><td><div>session_data_py2manager</div></td></tr><tr><td style="font-weight:bold;vertical-align:top;">session_file</td><td style="vertical-align:top;">:</td><td><div>&lt;open file &#x27;/home/wantsomechocolate/Code/py2manager/applications/py2manager/sessions/127.0.0.1-868ee5fc-b2e0-4773-bf58-0cf2622a8e45&#x27;, mode &#x27;rb+&#x27; at 0x7fa708892f60&gt;</div></td></tr><tr><td style="font-weight:bold;vertical-align:top;">session_filename</td><td style="vertical-align:top;">:</td><td><div>/home/wantsomechocolate/Code/py2manager/applications/py2manager/sessions/127.0.0.1-868ee5fc-b2e0-4773-bf58-0cf2622a8e45</div></td></tr><tr><td style="font-weight:bold;vertical-align:top;">session_hash</td><td style="vertical-align:top;">:</td><td><div>59cd1c9dc304172d7d0dbb680e007dea</div></td></tr><tr><td style="font-weight:bold;vertical-align:top;">session_id</td><td style="vertical-align:top;">:</td><td><div>127.0.0.1-868ee5fc-b2e0-4773-bf58-0cf2622a8e45</div></td></tr><tr><td style="font-weight:bold;vertical-align:top;">session_id_name</td><td style="vertical-align:top;">:</td><td><div>session_id_py2manager</div></td></tr><tr><td style="font-weight:bold;vertical-align:top;">session_locked</td><td style="vertical-align:top;">:</td><td><div>True</div></td></tr><tr><td style="font-weight:bold;vertical-align:top;">session_masterapp</td><td style="vertical-align:top;">:</td><td><div>py2manager</div></td></tr><tr><td style="font-weight:bold;vertical-align:top;">session_new</td><td style="vertical-align:top;">:</td><td><div>False</div></td></tr><tr><td style="font-weight:bold;vertical-align:top;">session_storage_type</td><td style="vertical-align:top;">:</td><td><div>file</div></td></tr><tr><td style="font-weight:bold;vertical-align:top;">status</td><td style="vertical-align:top;">:</td><td><div>200</div></td></tr><tr><td style="font-weight:bold;vertical-align:top;">view</td><td style="vertical-align:top;">:</td><td><div>appadmin/index.html</div></td></tr></table></div>'
tRp245
sS'locals'
p246
(dp247
S'a'
S"('ALTER TABLE electric ADD reporting_year DOUBLE NOT NULL;',)"
p248
sS'self'
p249
S'<gluon.dal.SQLiteAdapter object>'
p250
sS'b'
g21
sS'command'
p251
S"'ALTER TABLE electric ADD reporting_year DOUBLE NOT NULL;'"
p252
sS't0'
p253
S'1405468783.216774'
p254
sssS'traceback'
p255
S'Traceback (most recent call last):\n  File "/home/wantsomechocolate/Code/py2manager/gluon/restricted.py", line 220, in restricted\n    exec ccode in environment\n  File "/home/wantsomechocolate/Code/py2manager/applications/py2manager/models/db_tasks.py", line 68, in <module>\n    Field(\'reporting_year\', \'float\', notnull=True)\n  File "/home/wantsomechocolate/Code/py2manager/gluon/dal.py", line 8223, in define_table\n    table = self.lazy_define_table(tablename,*fields,**args)\n  File "/home/wantsomechocolate/Code/py2manager/gluon/dal.py", line 8260, in lazy_define_table\n    polymodel=polymodel)\n  File "/home/wantsomechocolate/Code/py2manager/gluon/dal.py", line 1132, in create_table\n    fake_migrate=fake_migrate\n  File "/home/wantsomechocolate/Code/py2manager/gluon/dal.py", line 1245, in migrate_table\n    self.execute(sub_query)\n  File "/home/wantsomechocolate/Code/py2manager/gluon/dal.py", line 1969, in execute\n    return self.log_execute(*a, **b)\n  File "/home/wantsomechocolate/Code/py2manager/gluon/dal.py", line 1963, in log_execute\n    ret = self.cursor.execute(command, *a[1:], **b)\nOperationalError: Cannot add a NOT NULL column with default value NULL\n'
p256
s.