(dp1
S'id'
p2
(dp3
S'length'
p4
I512
sS'unique'
p5
I00
sS'sortable'
p6
I1
sS'sql'
p7
S'INTEGER PRIMARY KEY AUTOINCREMENT'
p8
sS'notnull'
p9
I00
sS'type'
p10
S'id'
p11
ssS'name'
p12
(dp13
S'sortable'
p14
I2
sS'sql'
p15
S'CHAR(512) NOT NULL UNIQUE'
p16
sS'length'
p17
I512
sS'notnull'
p18
I01
sS'unique'
p19
I01
sS'type'
p20
S'string'
p21
ssS'area'
p22
(dp23
g14
I3
sg15
S'DOUBLE NOT NULL'
p24
sg17
I512
sg18
I01
sg19
I00
sg20
S'float'
p25
ss.