(dp1
S'to_usd'
p2
(dp3
S'length'
p4
I512
sS'unique'
p5
I00
sS'sortable'
p6
I3
sS'sql'
p7
S'CHAR(512) NOT NULL'
p8
sS'notnull'
p9
I01
sS'type'
p10
S'string'
p11
ssS'id'
p12
(dp13
g4
I512
sg5
I00
sg6
I1
sg7
S'INTEGER PRIMARY KEY AUTOINCREMENT'
p14
sg9
I00
sg10
S'id'
p15
ssS'name'
p16
(dp17
g4
I32768
sg5
I01
sg6
I2
sg7
S'TEXT NOT NULL UNIQUE'
p18
sg9
I01
sg10
S'text'
p19
ss.